target datalayout = "e-m:e-p270:32:32-p271:32:32-p272:64:64-i64:64-i128:128-f80:128-n8:16:32:64-S128"
target triple = "x86_64-pc-linux-gnu"

%union.pthread_mutex_t = type { %struct.__pthread_mutex_s }
%struct.__pthread_mutex_s = type { i32, i32, i32, i32, i32, i16, i16, %struct.__pthread_internal_list }
%struct.__pthread_internal_list = type { ptr, ptr }
%struct.wolfSSL_RefWithMutex = type { %union.pthread_mutex_t, i32 }
%struct.WOLFSSL_CTX = type <{ ptr, %struct.wolfSSL_RefWithMutex, i32, [4 x i8], %struct.WOLFSSL_BUFFER_INFO, %struct.WOLFSSL_BUFFER_INFO, ptr, ptr, i32, [4 x i8], ptr, i8, i8, [2 x i8], i32, i32, [4 x i8], ptr, ptr, ptr, i8, i16, i8, i8, i8, i16, i16, i16, i16, [2 x i8], i64, ptr, ptr, ptr, ptr, i32, i32, i16, [2 x i8], i32, [10 x i16], i8, [3 x i8], ptr, ptr, i32, [4 x i8], ptr, i8, [7 x i8] }>
%struct.WOLFSSL_BUFFER_INFO = type { ptr, i32 }

; Function Attrs: nounwind uwtable
define i32 @wolfSSL_CTX_SetMinDhKey_Sz(ptr noundef %0, i16 noundef zeroext %1) #0 {
  %3 = alloca i32, align 4
  %4 = alloca ptr, align 8
  %5 = alloca i16, align 2
  store ptr %0, ptr %4, align 8, !tbaa !24
  store i16 %1, ptr %5, align 2, !tbaa !94
  %6 = load ptr, ptr %4, align 8, !tbaa !24
  %7 = icmp eq ptr %6, null
  br i1 %7, label %17, label %8

8:                                                ; preds = %2
  %9 = load i16, ptr %5, align 2, !tbaa !94
  %10 = zext i16 %9 to i32
  %11 = icmp sgt i32 %10, 16000
  br i1 %11, label %17, label %12

12:                                               ; preds = %8
  %13 = load i16, ptr %5, align 2, !tbaa !94
  %14 = zext i16 %13 to i32
  %15 = srem i32 %14, 8
  %16 = icmp ne i32 %15, 0
  br i1 %16, label %17, label %18

17:                                               ; preds = %12, %8, %2
  store i32 -173, ptr %3, align 4
  br label %25

18:                                               ; preds = %12
  %19 = load i16, ptr %5, align 2, !tbaa !94
  %20 = zext i16 %19 to i32
  %21 = sdiv i32 %20, 8
  %22 = trunc i32 %21 to i16
  %23 = load ptr, ptr %4, align 8, !tbaa !24
  %24 = getelementptr inbounds nuw %struct.WOLFSSL_CTX, ptr %23, i32 0, i32 25
  store i16 %22, ptr %24, align 2, !tbaa !174
  store i32 1, ptr %3, align 4
  br label %25

25:                                               ; preds = %18, %17
  %26 = load i32, ptr %3, align 4
  ret i32 %26
}